target datalayout = "e-m:e-p270:32:32-p271:32:32-p272:64:64-i64:64-i128:128-f80:128-n8:16:32:64-S128"
target triple = "x86_64-pc-linux-gnu"

%struct._packet_info = type { ptr, ptr, i32, i32, %struct.nstime_t, %struct.nstime_t, %struct.nstime_t, i8, ptr, ptr, ptr, ptr, %struct._address, %struct._address, %struct._address, %struct._address, %struct._address, %struct._address, i32, ptr, i8, [3 x i8], %struct.anon, i32, i32, i32, i32, ptr, i8, ptr, ptr, i16, i16, i32, i32, i16, i32, i32, ptr, ptr, ptr, i8, i8, i16, i16, i16, i32, i16, i16, ptr, ptr, ptr, ptr, ptr, i32, i32 }
%struct.nstime_t = type { i64, i32 }
%struct._address = type { i32, i32, ptr, ptr }
%struct.anon = type { i8, [3 x i8] }

@hf_usb_com_interrupt_request_type = internal global i32 0, align 4
@hf_usb_com_interrupt_notif_code = internal global i32 0, align 4
@hf_usb_com_interrupt_value = internal global i32 0, align 4
@hf_usb_com_interrupt_value_nw_conn = internal global i32 0, align 4
@hf_usb_com_interrupt_index = internal global i32 0, align 4
@hf_usb_com_interrupt_length = internal global i32 0, align 4
@hf_usb_com_interrupt_dl_bitrate = internal global i32 0, align 4
@hf_usb_com_interrupt_ul_bitrate = internal global i32 0, align 4
@hf_usb_com_interrupt_payload = internal global i32 0, align 4
@ett_usb_com = internal global i32 0, align 4
@.str.182 = private unnamed_addr constant [7 x i8] c"USBCOM\00", align 1
@proto_usb_com = internal global i32 0, align 4
@.str.320 = private unnamed_addr constant [16 x i8] c"Unknown type %x\00", align 1

; Function Attrs: null_pointer_is_valid sspstrong uwtable
define internal i32 @dissect_usb_com_interrupt(ptr noundef %0, ptr noundef %1, ptr noundef %2, ptr noundef %3) #1 {
  %5 = alloca ptr, align 8
  %6 = alloca ptr, align 8
  %7 = alloca ptr, align 8
  %8 = alloca ptr, align 8
  %9 = alloca ptr, align 8
  %10 = alloca ptr, align 8
  %11 = alloca i32, align 4
  %12 = alloca i32, align 4
  store ptr %0, ptr %5, align 8
  store ptr %1, ptr %6, align 8
  store ptr %2, ptr %7, align 8
  store ptr %3, ptr %8, align 8
  call void @llvm.lifetime.start.p0(i64 8, ptr %9) #13
  call void @llvm.lifetime.start.p0(i64 8, ptr %10) #13
  call void @llvm.lifetime.start.p0(i64 4, ptr %11) #13
  call void @llvm.lifetime.start.p0(i64 4, ptr %12) #13
  store i32 0, ptr %12, align 4
  %13 = load ptr, ptr %6, align 8
  %14 = getelementptr inbounds nuw %struct._packet_info, ptr %13, i32 0, i32 1
  %15 = load ptr, ptr %14, align 8
  call void @col_set_str(ptr noundef %15, i32 noundef 35, ptr noundef @.str.182)
  %16 = load ptr, ptr %7, align 8
  %17 = load i32, ptr @proto_usb_com, align 4
  %18 = load ptr, ptr %5, align 8
  %19 = call ptr @proto_tree_add_item(ptr noundef %16, i32 noundef %17, ptr noundef %18, i32 noundef 0, i32 noundef -1, i32 noundef 0)
  store ptr %19, ptr %10, align 8
  %20 = load ptr, ptr %10, align 8
  %21 = load i32, ptr @ett_usb_com, align 4
  %22 = call ptr @proto_item_add_subtree(ptr noundef %20, i32 noundef %21)
  store ptr %22, ptr %9, align 8
  %23 = load ptr, ptr %9, align 8
  %24 = load i32, ptr @hf_usb_com_interrupt_request_type, align 4
  %25 = load ptr, ptr %5, align 8
  %26 = load i32, ptr %12, align 4
  %27 = call ptr @proto_tree_add_item(ptr noundef %23, i32 noundef %24, ptr noundef %25, i32 noundef %26, i32 noundef 1, i32 noundef -2147483648)
  %28 = load i32, ptr %12, align 4
  %29 = add i32 %28, 1
  store i32 %29, ptr %12, align 4
  %30 = load ptr, ptr %9, align 8
  %31 = load i32, ptr @hf_usb_com_interrupt_notif_code, align 4
  %32 = load ptr, ptr %5, align 8
  %33 = load i32, ptr %12, align 4
  %34 = call ptr @proto_tree_add_item_ret_uint(ptr noundef %30, i32 noundef %31, ptr noundef %32, i32 noundef %33, i32 noundef 1, i32 noundef -2147483648, ptr noundef %11)
  %35 = load i32, ptr %12, align 4
  %36 = add i32 %35, 1
  store i32 %36, ptr %12, align 4
  %37 = load ptr, ptr %6, align 8
  %38 = getelementptr inbounds nuw %struct._packet_info, ptr %37, i32 0, i32 1
  %39 = load ptr, ptr %38, align 8
  %40 = load i32, ptr %11, align 4
  %41 = call ptr @val_to_str(i32 noundef %40, ptr noundef @usb_com_interrupt_notif_code_vals, ptr noundef @.str.320)
  call void @col_add_str(ptr noundef %39, i32 noundef 25, ptr noundef %41)
  %42 = load i32, ptr %11, align 4
  switch i32 %42, label %123 [
    i32 0, label %43
    i32 1, label %65
    i32 42, label %87
  ]

43:                                               ; preds = %4
  %44 = load ptr, ptr %9, align 8
  %45 = load i32, ptr @hf_usb_com_interrupt_value_nw_conn, align 4
  %46 = load ptr, ptr %5, align 8
  %47 = load i32, ptr %12, align 4
  %48 = call ptr @proto_tree_add_item(ptr noundef %44, i32 noundef %45, ptr noundef %46, i32 noundef %47, i32 noundef 2, i32 noundef -2147483648)
  %49 = load i32, ptr %12, align 4
  %50 = add i32 %49, 2
  store i32 %50, ptr %12, align 4
  %51 = load ptr, ptr %9, align 8
  %52 = load i32, ptr @hf_usb_com_interrupt_index, align 4
  %53 = load ptr, ptr %5, align 8
  %54 = load i32, ptr %12, align 4
  %55 = call ptr @proto_tree_add_item(ptr noundef %51, i32 noundef %52, ptr noundef %53, i32 noundef %54, i32 noundef 2, i32 noundef -2147483648)
  %56 = load i32, ptr %12, align 4
  %57 = add i32 %56, 2
  store i32 %57, ptr %12, align 4
  %58 = load ptr, ptr %9, align 8
  %59 = load i32, ptr @hf_usb_com_interrupt_length, align 4
  %60 = load ptr, ptr %5, align 8
  %61 = load i32, ptr %12, align 4
  %62 = call ptr @proto_tree_add_item(ptr noundef %58, i32 noundef %59, ptr noundef %60, i32 noundef %61, i32 noundef 2, i32 noundef -2147483648)
  %63 = load i32, ptr %12, align 4
  %64 = add i32 %63, 2
  store i32 %64, ptr %12, align 4
  br label %124

65:                                               ; preds = %4
  %66 = load ptr, ptr %9, align 8
  %67 = load i32, ptr @hf_usb_com_interrupt_value, align 4
  %68 = load ptr, ptr %5, align 8
  %69 = load i32, ptr %12, align 4
  %70 = call ptr @proto_tree_add_item(ptr noundef %66, i32 noundef %67, ptr noundef %68, i32 noundef %69, i32 noundef 2, i32 noundef -2147483648)
  %71 = load i32, ptr %12, align 4
  %72 = add i32 %71, 2
  store i32 %72, ptr %12, align 4
  %73 = load ptr, ptr %9, align 8
  %74 = load i32, ptr @hf_usb_com_interrupt_index, align 4
  %75 = load ptr, ptr %5, align 8
  %76 = load i32, ptr %12, align 4
  %77 = call ptr @proto_tree_add_item(ptr noundef %73, i32 noundef %74, ptr noundef %75, i32 noundef %76, i32 noundef 2, i32 noundef -2147483648)
  %78 = load i32, ptr %12, align 4
  %79 = add i32 %78, 2
  store i32 %79, ptr %12, align 4
  %80 = load ptr, ptr %9, align 8
  %81 = load i32, ptr @hf_usb_com_interrupt_length, align 4
  %82 = load ptr, ptr %5, align 8
  %83 = load i32, ptr %12, align 4
  %84 = call ptr @proto_tree_add_item(ptr noundef %80, i32 noundef %81, ptr noundef %82, i32 noundef %83, i32 noundef 2, i32 noundef -2147483648)
  %85 = load i32, ptr %12, align 4
  %86 = add i32 %85, 2
  store i32 %86, ptr %12, align 4
  br label %124

87:                                               ; preds = %4
  %88 = load ptr, ptr %9, align 8
  %89 = load i32, ptr @hf_usb_com_interrupt_value, align 4
  %90 = load ptr, ptr %5, align 8
  %91 = load i32, ptr %12, align 4
  %92 = call ptr @proto_tree_add_item(ptr noundef %88, i32 noundef %89, ptr noundef %90, i32 noundef %91, i32 noundef 2, i32 noundef -2147483648)
  %93 = load i32, ptr %12, align 4
  %94 = add i32 %93, 2
  store i32 %94, ptr %12, align 4
  %95 = load ptr, ptr %9, align 8
  %96 = load i32, ptr @hf_usb_com_interrupt_index, align 4
  %97 = load ptr, ptr %5, align 8
  %98 = load i32, ptr %12, align 4
  %99 = call ptr @proto_tree_add_item(ptr noundef %95, i32 noundef %96, ptr noundef %97, i32 noundef %98, i32 noundef 2, i32 noundef -2147483648)
  %100 = load i32, ptr %12, align 4
  %101 = add i32 %100, 2
  store i32 %101, ptr %12, align 4
  %102 = load ptr, ptr %9, align 8
  %103 = load i32, ptr @hf_usb_com_interrupt_length, align 4
  %104 = load ptr, ptr %5, align 8
  %105 = load i32, ptr %12, align 4
  %106 = call ptr @proto_tree_add_item(ptr noundef %102, i32 noundef %103, ptr noundef %104, i32 noundef %105, i32 noundef 2, i32 noundef -2147483648)
  %107 = load i32, ptr %12, align 4
  %108 = add i32 %107, 2
  store i32 %108, ptr %12, align 4
  %109 = load ptr, ptr %9, align 8
  %110 = load i32, ptr @hf_usb_com_interrupt_dl_bitrate, align 4
  %111 = load ptr, ptr %5, align 8
  %112 = load i32, ptr %12, align 4
  %113 = call ptr @proto_tree_add_item(ptr noundef %109, i32 noundef %110, ptr noundef %111, i32 noundef %112, i32 noundef 4, i32 noundef -2147483648)
  %114 = load i32, ptr %12, align 4
  %115 = add i32 %114, 4
  store i32 %115, ptr %12, align 4
  %116 = load ptr, ptr %9, align 8
  %117 = load i32, ptr @hf_usb_com_interrupt_ul_bitrate, align 4
  %118 = load ptr, ptr %5, align 8
  %119 = load i32, ptr %12, align 4
  %120 = call ptr @proto_tree_add_item(ptr noundef %116, i32 noundef %117, ptr noundef %118, i32 noundef %119, i32 noundef 4, i32 noundef -2147483648)
  %121 = load i32, ptr %12, align 4
  %122 = add i32 %121, 4
  store i32 %122, ptr %12, align 4
  br label %124

123:                                              ; preds = %4
  br label %124

124:                                              ; preds = %123, %87, %65, %43
  %125 = load ptr, ptr %5, align 8
  %126 = load i32, ptr %12, align 4
  %127 = call i32 @tvb_reported_length_remaining(ptr noundef %125, i32 noundef %126)
  %128 = icmp sgt i32 %127, 0
  br i1 %128, label %129, label %135

129:                                              ; preds = %124
  %130 = load ptr, ptr %9, align 8
  %131 = load i32, ptr @hf_usb_com_interrupt_payload, align 4
  %132 = load ptr, ptr %5, align 8
  %133 = load i32, ptr %12, align 4
  %134 = call ptr @proto_tree_add_item(ptr noundef %130, i32 noundef %131, ptr noundef %132, i32 noundef %133, i32 noundef -1, i32 noundef 0)
  br label %135

135:                                              ; preds = %129, %124
  %136 = load ptr, ptr %5, align 8
  %137 = call i32 @tvb_captured_length(ptr noundef %136)
  call void @llvm.lifetime.end.p0(i64 4, ptr %12) #13
  call void @llvm.lifetime.end.p0(i64 4, ptr %11) #13
  call void @llvm.lifetime.end.p0(i64 8, ptr %10) #13
  call void @llvm.lifetime.end.p0(i64 8, ptr %9) #13
  ret i32 %137
}