; Function Attrs: null_pointer_is_valid sspstrong uwtable
define internal i32 @dissect_usb_com_interrupt(ptr noundef %0, ptr noundef readonly captures(none) %1, ptr noundef %2, ptr readnone captures(none) %3) #1 {
  %5 = alloca i32, align 4
  call void @llvm.lifetime.start.p0(i64 4, ptr nonnull %5) #11
  %6 = getelementptr inbounds nuw i8, ptr %1, i64 8
  %7 = load ptr, ptr %6, align 8
  tail call void @col_set_str(ptr noundef %7, i32 noundef 35, ptr noundef nonnull @.str.182)
  %8 = load i32, ptr @proto_usb_com, align 4
  %9 = tail call ptr @proto_tree_add_item(ptr noundef %2, i32 noundef %8, ptr noundef %0, i32 noundef 0, i32 noundef -1, i32 noundef 0)
  %10 = load i32, ptr @ett_usb_com, align 4
  %11 = tail call ptr @proto_item_add_subtree(ptr noundef %9, i32 noundef %10)
  %12 = load i32, ptr @hf_usb_com_interrupt_request_type, align 4
  %13 = tail call ptr @proto_tree_add_item(ptr noundef %11, i32 noundef %12, ptr noundef %0, i32 noundef 0, i32 noundef 1, i32 noundef -2147483648)
  %14 = load i32, ptr @hf_usb_com_interrupt_notif_code, align 4
  %15 = call ptr @proto_tree_add_item_ret_uint(ptr noundef %11, i32 noundef %14, ptr noundef %0, i32 noundef 1, i32 noundef 1, i32 noundef -2147483648, ptr noundef nonnull %5)
  %16 = load ptr, ptr %6, align 8
  %17 = load i32, ptr %5, align 4
  %18 = call ptr @val_to_str(i32 noundef %17, ptr noundef nonnull @usb_com_interrupt_notif_code_vals, ptr noundef nonnull @.str.320)
  call void @col_add_str(ptr noundef %16, i32 noundef 25, ptr noundef %18)
  %19 = load i32, ptr %5, align 4
  switch i32 %19, label %45 [
    i32 0, label %20
    i32 1, label %27
    i32 42, label %34
  ]

20:                                               ; preds = %4
  %21 = load i32, ptr @hf_usb_com_interrupt_value_nw_conn, align 4
  %22 = call ptr @proto_tree_add_item(ptr noundef %11, i32 noundef %21, ptr noundef %0, i32 noundef 2, i32 noundef 2, i32 noundef -2147483648)
  %23 = load i32, ptr @hf_usb_com_interrupt_index, align 4
  %24 = call ptr @proto_tree_add_item(ptr noundef %11, i32 noundef %23, ptr noundef %0, i32 noundef 4, i32 noundef 2, i32 noundef -2147483648)
  %25 = load i32, ptr @hf_usb_com_interrupt_length, align 4
  %26 = call ptr @proto_tree_add_item(ptr noundef %11, i32 noundef %25, ptr noundef %0, i32 noundef 6, i32 noundef 2, i32 noundef -2147483648)
  br label %45

27:                                               ; preds = %4
  %28 = load i32, ptr @hf_usb_com_interrupt_value, align 4
  %29 = call ptr @proto_tree_add_item(ptr noundef %11, i32 noundef %28, ptr noundef %0, i32 noundef 2, i32 noundef 2, i32 noundef -2147483648)
  %30 = load i32, ptr @hf_usb_com_interrupt_index, align 4
  %31 = call ptr @proto_tree_add_item(ptr noundef %11, i32 noundef %30, ptr noundef %0, i32 noundef 4, i32 noundef 2, i32 noundef -2147483648)
  %32 = load i32, ptr @hf_usb_com_interrupt_length, align 4
  %33 = call ptr @proto_tree_add_item(ptr noundef %11, i32 noundef %32, ptr noundef %0, i32 noundef 6, i32 noundef 2, i32 noundef -2147483648)
  br label %45

34:                                               ; preds = %4
  %35 = load i32, ptr @hf_usb_com_interrupt_value, align 4
  %36 = call ptr @proto_tree_add_item(ptr noundef %11, i32 noundef %35, ptr noundef %0, i32 noundef 2, i32 noundef 2, i32 noundef -2147483648)
  %37 = load i32, ptr @hf_usb_com_interrupt_index, align 4
  %38 = call ptr @proto_tree_add_item(ptr noundef %11, i32 noundef %37, ptr noundef %0, i32 noundef 4, i32 noundef 2, i32 noundef -2147483648)
  %39 = load i32, ptr @hf_usb_com_interrupt_length, align 4
  %40 = call ptr @proto_tree_add_item(ptr noundef %11, i32 noundef %39, ptr noundef %0, i32 noundef 6, i32 noundef 2, i32 noundef -2147483648)
  %41 = load i32, ptr @hf_usb_com_interrupt_dl_bitrate, align 4
  %42 = call ptr @proto_tree_add_item(ptr noundef %11, i32 noundef %41, ptr noundef %0, i32 noundef 8, i32 noundef 4, i32 noundef -2147483648)
  %43 = load i32, ptr @hf_usb_com_interrupt_ul_bitrate, align 4
  %44 = call ptr @proto_tree_add_item(ptr noundef %11, i32 noundef %43, ptr noundef %0, i32 noundef 12, i32 noundef 4, i32 noundef -2147483648)
  br label %45

45:                                               ; preds = %4, %34, %27, %20
  %.0 = phi i32 [ 2, %4 ], [ 16, %34 ], [ 8, %27 ], [ 8, %20 ]
  %46 = call i32 @tvb_reported_length_remaining(ptr noundef %0, i32 noundef %.0)
  %47 = icmp sgt i32 %46, 0
  br i1 %47, label %48, label %51

48:                                               ; preds = %45
  %49 = load i32, ptr @hf_usb_com_interrupt_payload, align 4
  %50 = call ptr @proto_tree_add_item(ptr noundef %11, i32 noundef %49, ptr noundef %0, i32 noundef %.0, i32 noundef -1, i32 noundef 0)
  br label %51

51:                                               ; preds = %48, %45
  %52 = call i32 @tvb_captured_length(ptr noundef %0)
  call void @llvm.lifetime.end.p0(i64 4, ptr nonnull %5) #11
  ret i32 %52
}